; Function Attrs: mustprogress nounwind uwtable
define dso_local void @_ZN5clang13ASTStmtReader21VisitOMPTileDirectiveEPNS_16OMPTileDirectiveE(ptr noundef nonnull readonly align 8 captures(none) dereferenceable(28) %0, ptr noundef captures(none) initializes((12, 20)) %1) local_unnamed_addr #0 align 2 {
  %3 = load ptr, ptr %0, align 8
  %4 = getelementptr inbounds nuw i8, ptr %3, i64 24
  %5 = load i32, ptr %4, align 8
  %6 = add i32 %5, 1
  store i32 %6, ptr %4, align 8
  tail call void @_ZN5clang13ASTStmtReader27VisitOMPExecutableDirectiveEPNS_22OMPExecutableDirectiveE(ptr noundef nonnull readonly align 8 dereferenceable(28) %0, ptr noundef %1)
  %7 = load ptr, ptr %0, align 8
  %8 = getelementptr inbounds nuw i8, ptr %7, i64 32
  %9 = getelementptr inbounds nuw i8, ptr %7, i64 24
  %10 = load i32, ptr %9, align 8
  %11 = add i32 %10, 1
  store i32 %11, ptr %9, align 8
  %12 = zext i32 %10 to i64
  %13 = load ptr, ptr %8, align 8
  %14 = getelementptr inbounds nuw i64, ptr %13, i64 %12
  %15 = load i64, ptr %14, align 8
  %16 = trunc i64 %15 to i32
  %17 = getelementptr inbounds nuw i8, ptr %1, i64 36
  store i32 %16, ptr %17, align 4
  ret void
}